; Function Attrs: mustprogress uwtable
define noundef zeroext i1 @_ZN5boost10filesystem6detail16create_directoryERKNS0_4pathEPS3_PNS_6system10error_codeE(ptr noundef nonnull align 8 dereferenceable(32) %0, ptr noundef %1, ptr noundef %2) local_unnamed_addr #5 personality ptr @__gxx_personality_v0 {
  %4 = alloca %"class.boost::filesystem::file_status", align 4
  %5 = alloca %struct.statx, align 8
  %6 = alloca %"class.boost::system::error_code", align 8
  %.not = icmp eq ptr %2, null
  br i1 %.not, label %8, label %7

7:                                                ; preds = %3
  tail call void @llvm.memset.p0.i64(ptr noundef nonnull align 8 dereferenceable(24) %2, i8 0, i64 24, i1 false)
  br label %8

8:                                                ; preds = %7, %3
  %.not28 = icmp eq ptr %1, null
  br i1 %.not28, label %25, label %9

9:                                                ; preds = %8
  call void @llvm.lifetime.start.p0(i64 256, ptr nonnull %5) #27
  %10 = load ptr, ptr %1, align 8, !tbaa !13
  %11 = call noundef i32 @statx(i32 noundef -100, ptr noundef %10, i32 noundef 2048, i32 noundef 3, ptr noundef nonnull %5) #27
  %12 = icmp slt i32 %11, 0
  br i1 %12, label %13, label %16, !prof !41

13:                                               ; preds = %9
  %14 = tail call ptr @__errno_location() #30
  %15 = load i32, ptr %14, align 4, !tbaa !19
  br label %.thread

16:                                               ; preds = %9
  %17 = load i32, ptr %5, align 8, !tbaa !28
  %18 = and i32 %17, 3
  %.not29 = icmp eq i32 %18, 3
  br i1 %.not29, label %19, label %.thread, !prof !32

19:                                               ; preds = %16
  %20 = getelementptr inbounds i8, ptr %5, i64 28
  %.val = load i16, ptr %20, align 4, !tbaa !33
  %21 = zext i16 %.val to i32
  %22 = and i32 %21, 61440
  %23 = icmp eq i32 %22, 16384
  br i1 %23, label %24, label %.thread

.thread:                                          ; preds = %19, %16, %13
  %.sink = phi i32 [ %15, %13 ], [ 38, %16 ], [ 20, %19 ]
  call void @_ZN5boost10filesystem10emit_errorEiRKNS0_4pathES3_PNS_6system10error_codeEPKc(i32 noundef %.sink, ptr noundef nonnull align 8 dereferenceable(32) %0, ptr noundef nonnull align 8 dereferenceable(32) %1, ptr noundef %2, ptr noundef nonnull @.str.7)
  call void @llvm.lifetime.end.p0(i64 256, ptr nonnull %5) #27
  br label %39

24:                                               ; preds = %19
  call void @llvm.lifetime.end.p0(i64 256, ptr nonnull %5) #27
  br label %25

25:                                               ; preds = %24, %8
  %.022 = phi i32 [ %21, %24 ], [ 511, %8 ]
  %26 = load ptr, ptr %0, align 8, !tbaa !13
  %27 = call i32 @mkdir(ptr noundef %26, i32 noundef %.022) #27
  %28 = icmp eq i32 %27, 0
  br i1 %28, label %39, label %29

29:                                               ; preds = %25
  %30 = tail call ptr @__errno_location() #30
  %31 = load i32, ptr %30, align 4, !tbaa !19
  call void @llvm.lifetime.start.p0(i64 24, ptr nonnull %6) #27
  call void @llvm.lifetime.start.p0(i64 8, ptr nonnull %4)
  call void @llvm.memset.p0.i64(ptr noundef nonnull align 8 dereferenceable(24) %6, i8 0, i64 24, i1 false), !noalias !138
  invoke void @_ZN5boost10filesystem6detail11status_implERKNS0_4pathEPNS_6system10error_codeEi(ptr dead_on_unwind nonnull writable sret(%"class.boost::filesystem::file_status") align 4 %4, ptr noundef nonnull align 8 dereferenceable(32) %0, ptr noundef nonnull align 8 dereferenceable(24) %6, i32 noundef -100)
          to label %_ZN5boost10filesystem12is_directoryERKNS0_4pathERNS_6system10error_codeE.exit unwind label %32

32:                                               ; preds = %29
  %33 = landingpad { ptr, i32 }
          catch ptr null
  %34 = extractvalue { ptr, i32 } %33, 0
  call void @__clang_call_terminate(ptr %34) #29
  unreachable

_ZN5boost10filesystem12is_directoryERKNS0_4pathERNS_6system10error_codeE.exit: ; preds = %29
  %35 = load i32, ptr %4, align 4, !tbaa !34
  %36 = icmp eq i32 %35, 3
  call void @llvm.lifetime.end.p0(i64 8, ptr nonnull %4)
  br i1 %36, label %38, label %37

37:                                               ; preds = %_ZN5boost10filesystem12is_directoryERKNS0_4pathERNS_6system10error_codeE.exit
  call void @_ZN5boost10filesystem10emit_errorEiRKNS0_4pathEPNS_6system10error_codeEPKc(i32 noundef %31, ptr noundef nonnull align 8 dereferenceable(32) %0, ptr noundef %2, ptr noundef nonnull @.str.7)
  br label %38

38:                                               ; preds = %_ZN5boost10filesystem12is_directoryERKNS0_4pathERNS_6system10error_codeE.exit, %37
  call void @llvm.lifetime.end.p0(i64 24, ptr nonnull %6) #27
  br label %39

39:                                               ; preds = %.thread, %25, %38
  %.2 = phi i1 [ false, %38 ], [ true, %25 ], [ false, %.thread ]
  ret i1 %.2
}